; Function Attrs: cold nounwind optsize uwtable
define internal range(i32 -12, 1) i32 @ff_tx_fft_init_naive_small_float_c(ptr noundef captures(none) initializes((16, 24)) %0, ptr readnone captures(none) %1, i64 %2, ptr readnone captures(none) %3, i32 noundef %4, i32 %5, ptr readnone captures(none) %6) #0 {
  %8 = getelementptr inbounds nuw i8, ptr %0, i64 4
  %9 = load i32, ptr %8, align 4, !tbaa !74
  %.not = icmp eq i32 %9, 0
  %10 = sitofp i32 %4 to double
  %.v = select i1 %.not, double 0xC01921FB54442D18, double 0x401921FB54442D18
  %11 = fdiv nsz double %.v, %10
  %12 = mul nsw i32 %4, %4
  %13 = zext nneg i32 %12 to i64
  %14 = shl nuw nsw i64 %13, 3
  %15 = tail call noalias ptr @av_malloc(i64 noundef %14) #16
  %16 = getelementptr inbounds nuw i8, ptr %0, i64 16
  store ptr %15, ptr %16, align 8, !tbaa !26
  %.not23 = icmp eq ptr %15, null
  br i1 %.not23, label %.loopexit, label %.preheader24

.preheader24:                                     ; preds = %7
  %17 = icmp sgt i32 %4, 0
  br i1 %17, label %.preheader.lr.ph, label %.loopexit

.preheader.lr.ph:                                 ; preds = %.preheader24
  %wide.trip.count31 = zext nneg i32 %4 to i64
  br label %.lr.ph

.lr.ph:                                           ; preds = %._crit_edge, %.preheader.lr.ph
  %indvars.iv28 = phi i64 [ 0, %.preheader.lr.ph ], [ %indvars.iv.next29, %._crit_edge ]
  %18 = trunc nuw nsw i64 %indvars.iv28 to i32
  %19 = uitofp nneg i32 %18 to double
  %20 = fmul nsz double %11, %19
  br label %21

._crit_edge:                                      ; preds = %21
  %indvars.iv.next29 = add nuw nsw i64 %indvars.iv28, 1
  %exitcond32.not = icmp eq i64 %indvars.iv.next29, %wide.trip.count31
  br i1 %exitcond32.not, label %.loopexit, label %.lr.ph, !llvm.loop !79

21:                                               ; preds = %.lr.ph, %21
  %indvars.iv = phi i64 [ 0, %.lr.ph ], [ %indvars.iv.next, %21 ]
  %22 = trunc nuw nsw i64 %indvars.iv to i32
  %23 = uitofp nneg i32 %22 to double
  %24 = fmul nsz double %20, %23
  %25 = mul nuw nsw i64 %indvars.iv, %indvars.iv28
  %26 = getelementptr inbounds nuw %struct.AVComplexFloat, ptr %15, i64 %25
  %27 = tail call nsz double @llvm.cos.f64(double %24)
  %28 = fptrunc nsz double %27 to float
  %29 = tail call nsz double @llvm.sin.f64(double %24)
  %30 = fptrunc nsz double %29 to float
  store float %28, ptr %26, align 4, !tbaa !27
  %.sroa.2.0..sroa_idx = getelementptr inbounds nuw i8, ptr %26, i64 4
  store float %30, ptr %.sroa.2.0..sroa_idx, align 4, !tbaa !27
  %indvars.iv.next = add nuw nsw i64 %indvars.iv, 1
  %exitcond.not = icmp eq i64 %indvars.iv.next, %wide.trip.count31
  br i1 %exitcond.not, label %._crit_edge, label %21, !llvm.loop !80

.loopexit:                                        ; preds = %._crit_edge, %.preheader24, %7
  %.0 = phi i32 [ -12, %7 ], [ 0, %.preheader24 ], [ 0, %._crit_edge ]
  ret i32 %.0
}